target datalayout = "e-m:e-p270:32:32-p271:32:32-p272:64:64-i64:64-i128:128-f80:128-n8:16:32:64-S128"
target triple = "x86_64-pc-linux-gnu"

%"struct.gmx::IMDSocket" = type { %struct.sockaddr_in, i32 }
%struct.sockaddr_in = type { i16, i16, %struct.in_addr, [8 x i8] }
%struct.in_addr = type { i32 }

@.str.1 = private unnamed_addr constant [123 x i8] c"generated/home/dtcxzyw/WorkSpace/Projects/compilers/llvm-opt-benchmark/bench/gromacs/gromacs/src/gromacs/imd/imdsocket.cpp\00", align 1
@stderr = external global ptr, align 8
@_ZN3gmxL6IMDstrE = internal constant [5 x i8] c"IMD:\00", align 1
@.str.5 = private unnamed_addr constant [38 x i8] c"%s getsockname failed with error %d.\0A\00", align 1

; Function Attrs: inlinehint mustprogress nounwind uwtable
define internal noundef zeroext i16 @_ZL10__bswap_16t(i16 noundef zeroext %0) #8 {
  %2 = alloca i16, align 2
  store i16 %0, ptr %2, align 2, !tbaa !27
  %3 = load i16, ptr %2, align 2, !tbaa !27
  %4 = zext i16 %3 to i32
  %5 = ashr i32 %4, 8
  %6 = and i32 %5, 255
  %7 = load i16, ptr %2, align 2, !tbaa !27
  %8 = zext i16 %7 to i32
  %9 = and i32 %8, 255
  %10 = shl i32 %9, 8
  %11 = or i32 %6, %10
  %12 = trunc i32 %11 to i16
  ret i16 %12
}

; Function Attrs: mustprogress nounwind uwtable
define noundef i32 @_ZN3gmx15imdsock_getportEPNS_9IMDSocketEPi(ptr noundef %0, ptr noundef %1) #0 {
  %3 = alloca ptr, align 8
  %4 = alloca ptr, align 8
  %5 = alloca i32, align 4
  %6 = alloca i32, align 4
  store ptr %0, ptr %3, align 8, !tbaa !4
  store ptr %1, ptr %4, align 8, !tbaa !30
  call void @llvm.lifetime.start.p0(i64 4, ptr %5) #10
  call void @llvm.lifetime.start.p0(i64 4, ptr %6) #10
  store i32 16, ptr %6, align 4, !tbaa !15
  %7 = load ptr, ptr %3, align 8, !tbaa !4
  %8 = getelementptr inbounds nuw %"struct.gmx::IMDSocket", ptr %7, i32 0, i32 1
  %9 = load i32, ptr %8, align 4, !tbaa !9
  %10 = load ptr, ptr %3, align 8, !tbaa !4
  %11 = getelementptr inbounds nuw %"struct.gmx::IMDSocket", ptr %10, i32 0, i32 0
  %12 = call i32 @getsockname(i32 noundef %9, ptr noundef %11, ptr noundef %6) #10
  store i32 %12, ptr %5, align 4, !tbaa !15
  %13 = load i32, ptr %5, align 4, !tbaa !15
  %14 = icmp ne i32 %13, 0
  br i1 %14, label %15, label %22

15:                                               ; preds = %2
  %16 = load ptr, ptr @stderr, align 8, !tbaa !23
  %17 = load i32, ptr %5, align 4, !tbaa !15
  %18 = call i32 (ptr, ptr, ...) @fprintf(ptr noundef %16, ptr noundef @.str.5, ptr noundef @_ZN3gmxL6IMDstrE, i32 noundef %17) #10
  %19 = call ptr @__errno_location() #11
  %20 = load i32, ptr %19, align 4, !tbaa !15
  %21 = call ptr @strerror(i32 noundef %20) #10
  call void @_ZN3gmxL15print_IMD_errorEPKciPc(ptr noundef @.str.1, i32 noundef 275, ptr noundef %21)
  br label %30

22:                                               ; preds = %2
  %23 = load ptr, ptr %3, align 8, !tbaa !4
  %24 = getelementptr inbounds nuw %"struct.gmx::IMDSocket", ptr %23, i32 0, i32 0
  %25 = getelementptr inbounds nuw %struct.sockaddr_in, ptr %24, i32 0, i32 1
  %26 = load i16, ptr %25, align 2, !tbaa !26
  %27 = call noundef zeroext i16 @_ZL10__bswap_16t(i16 noundef zeroext %26)
  %28 = zext i16 %27 to i32
  %29 = load ptr, ptr %4, align 8, !tbaa !30
  store i32 %28, ptr %29, align 4, !tbaa !15
  br label %30

30:                                               ; preds = %22, %15
  %31 = load i32, ptr %5, align 4, !tbaa !15
  call void @llvm.lifetime.end.p0(i64 4, ptr %6) #10
  call void @llvm.lifetime.end.p0(i64 4, ptr %5) #10
  ret i32 %31
}