; Function Attrs: mustprogress nounwind uwtable
define noundef i32 @_ZN3gmx15imdsock_getportEPNS_9IMDSocketEPi(ptr noundef %0, ptr noundef writeonly captures(none) %1) local_unnamed_addr #8 {
  %3 = alloca i32, align 4
  call void @llvm.lifetime.start.p0(i64 4, ptr nonnull %3) #14
  store i32 16, ptr %3, align 4, !tbaa !12
  %4 = getelementptr inbounds nuw i8, ptr %0, i64 16
  %5 = load i32, ptr %4, align 4, !tbaa !4
  %6 = call i32 @getsockname(i32 noundef %5, ptr noundef %0, ptr noundef nonnull %3) #14
  %.not = icmp eq i32 %6, 0
  br i1 %.not, label %13, label %7

7:                                                ; preds = %2
  %8 = load ptr, ptr @stderr, align 8, !tbaa !13
  %9 = call i32 (ptr, ptr, ...) @fprintf(ptr noundef %8, ptr noundef nonnull @.str.5, ptr noundef nonnull @_ZN3gmxL6IMDstrE, i32 noundef %6) #16
  %10 = tail call ptr @__errno_location() #15
  %11 = load i32, ptr %10, align 4, !tbaa !12
  %12 = call ptr @strerror(i32 noundef %11) #14
  call fastcc void @_ZN3gmxL15print_IMD_errorEPKciPc(i32 noundef 275, ptr noundef %12)
  br label %17

13:                                               ; preds = %2
  %14 = getelementptr inbounds nuw i8, ptr %0, i64 2
  %15 = load i16, ptr %14, align 2, !tbaa !17
  %rev.i = call noundef i16 @llvm.bswap.i16(i16 %15)
  %16 = zext i16 %rev.i to i32
  store i32 %16, ptr %1, align 4, !tbaa !12
  br label %17

17:                                               ; preds = %13, %7
  call void @llvm.lifetime.end.p0(i64 4, ptr nonnull %3) #14
  ret i32 %6
}